(lp0
Vvegetable oil
p1
aVwoodwaste/bagasse
p2
aVnatural gas
p3
aVvarious grasses
p4
aVnonedible oils
p5
aVanimal fats
p6
aVpaper
p7
aVponderosa pine
p8
aVgrass seed
p9
aVosb
p10
aVpaper waste
p11
aVcorn cob
p12
aVenergy grasses
p13
aVlogging residues
p14
aVwillow
p15
aVcrop waste
p16
aVfirewood
p17
aVjatropha
p18
aVsugarcane bagasse
p19
aVsugar
p20
aVwood
p21
aVmunicipal solid waste
p22
aVbanna grass
p23
aVwaste oil
p24
aVbarley
p25
aVstarch
p26
aVconiferous wood
p27
aVcorn oil
p28
aVwood waste
p29
aVcorn stalks
p30
aVyellow grease
p31
aVmolasses
p32
aVwoodchips
p33
aVfood waste
p34
aVcitrus residues
p35
aVwood chips
p36
aVcotton residue
p37
aVindustrial waste
p38
aVcorn stover
p39
aVwaste fat
p40
aVwaste vegetable oil
p41
aVtallow
p42
aVsewage
p43
aVwhite pine
p44
aVhardwood
p45
aVloblolly pine
p46
aVmiscanthus
p47
aVpalm
p48
aVmilo
p49
aVbark
p50
aVagriculture
p51
aVtextiles
p52
aVbeef tallow
p53
aVanimal waste
p54
aVcobs
p55
aVforest residues
p56
aVgrass clippings
p57
aVplywood
p58
aVdry biomass
p59
aVsouthern yellow pine
p60
aVfree fatty acid
p61
aVtrap grease
p62
aVwoody and agricultural by-products
p63
aVsyngas from gasifier
p64
aVcellulose
p65
aVwheat
p66
aVorganic waste
p67
aVoil plants
p68
aVcorn
p69
aVanimal manure
p70
aVdung
p71
aVagricultural waste
p72
aVelephant grass
p73
aVbiogas from landfills
p74
aVwaste water sludge
p75
aValgae
p76
aVrice straw
p77
aVbarley straw
p78
aVGiant reed
p79
aVrice hulls
p80
aVcanola oil
p81
aVmsw
p82
aVdigester gas
p83
aVseeds
p84
aVgrain
p85
aVdistillers grain
p86
aVsugar beet
p87
aVmixed biomass
p88
aVbrewery waste
p89
aVtriticale
p90
aVcamelina
p91
aVcellulosic biomass
p92
aVplastics
p93
aVpoultry fat
p94
aVstraw
p95
aVwater hyacinth
p96
aVhogs
p97
aVbeverage waste
p98
aVmacroalgae
p99
aVsugar base
p100
aVsoy
p101
aVwoody biomass
p102
aVmaple
p103
aVbagasse
p104
aVwheat straw
p105
aVjathropa
p106
aVmedium density fiberboard
p107
aVbiodegradable waste
p108
aVpoplar/energy woods
p109
aVhusk
p110
aVfog
p111
aVwaste
p112
aVsoy oil
p113
aVoilseeds
p114
aVpal waste
p115
aVgrass straw and corn stalks
p116
aVagricultural biomass
p117
aVglycerin
p118
aVused cooking oil
p119
aVhydrous ethanol
p120
aVseed oil
p121
aVmanure
p122
aVshrub willow
p123
aVgrains
p124
aVsyngas
p125
aVparticle board
p126
aVenergy crops
p127
aVslash pine
p128
aVlemna
p129
aVlumber
p130
aVhog fuel
p131
aVagricultural residues
p132
aVgrass
p133
aVsorghum
p134
aVvirgin oil
p135
aVrapeseed oil
p136
aVcooking oil
p137
aVsawdust
p138
aVsugarcane trash
p139
aVcheese whey
p140
aVcorn/barley
p141
aVswitchgrass
p142
aVyard trimmings
p143
aVstover
p144
aVdouglas fir
p145
aVcrude glycerine
p146
aVbrown grease
p147
aVwaste water
p148
aVgarden waste
p149
aVyeast
p150
aVoak
p151
aVpine
p152
aVforestry
p153
aVwood fuel
p154
aVmixed prairie grass
p155
aVwhey
p156
aVlignocellulosics
p157
aVcellulosic sugars
p158
aVjuniper
p159
aVsugarcane
p160
aVurban wood
p161
aVresidues
p162
aVcotton gin trash
p163
aVrapeseed
p164
aVarundo donax
p165
aVdedicated energy crops
p166
aVblack liquor
p167
aVeucalyptus
p168
aVbeets
p169
aVnon-cellulosic portions of sfw
p170
aVrefined vegetable oil
p171
aVvegetable waste
p172
aVpoplar
p173
aVpalm oil
p174
aVblend
p175
aVhybrid poplar
p176
aVhydrochloric acid
p177
aVaerobic digestion
p178
aVconsolidated bioprocessing
p179
aVmethane recovery
p180
aVhydroprocessing
p181
aVbiomass combustion
p182
aVgasification
p183
aVenzymatic hydrolysis
p184
aVbiogas productions
p185
aVoil extraction
p186
aVbioenergy generation
p187
aVcoking
p188
aVcharring
p189
aVcbp
p190
aVmicrowave
p191
aVbioforming
p192
aValgal oil extraction
p193
aVbiomass gasification
p194
aVblack liquor gasification
p195
aVgrate furnaces
p196
aVsolvents
p197
aVfixed bed gasifiers
p198
aVbiochemical conversions
p199
aVblg
p200
aValcoholic fermentation
p201
aVfischer-tropsch
p202
aVhydrotreating
p203
aVtransesterification
p204
aValgae oil extraction
p205
aVgas cleaning
p206
aVlandfill gas
p207
aVpyrolysis oil
p208
aVthermochemical conversions
p209
aVfast pyrolysis
p210
aVscrubbers
p211
aVtbd
p212
aVplant cell culture
p213
aVacid hydrolysis
p214
aVadvanced fermentation
p215
aVpyrolysis
p216
aVliquefaction
p217
aVgasification-fermentation
p218
aVhydrolysis
p219
aVft microchannel reactor
p220
aVpressing
p221
aVmetathesis
p222
aVfluidized bed furnaces
p223
aVanaerobic digestion
p224
aVfermentation
p225
aVcatalysis
p226
aVfuranics
p227
aVbiodme
p228
aVcellulosic heating oil
p229
aVsuccinic acid
p230
aVrenewable jet fuel
p231
aVethanol blending
p232
aVadipic acid
p233
aVrenewable chemicals
p234
aVsyng
p235
aVdrop-in fuels
p236
aVelectricity from biomass
p237
aVbioplastic
p238
aVbiobutanol
p239
aVeth from bagasse
p240
aVcellulosic renewable gasoline
p241
aVadvanced biofuel
p242
aVrenewable electricity
p243
aVrenewable gasoline
p244
aVmethanol
p245
aVbiogas
p246
aVcellulosic ethanol
p247
aVbdo
p248
aVnutriceuticals
p249
aVbutanol
p250
aVbiopolymers
p251
aVsng
p252
aVbio-oil
p253
aVbiofuels from algae
p254
aVcellulosic biofuel
p255
aVcelleth from wheat straw
p256
aVbiodiesel
p257
aVbiogasoline
p258
aVlpg
p259
aVrenewable diesel
p260
aVnaphtha
p261
aVethanol
p262
aVmethanol/then ethanol
p263
aVfatty acid ethyl ester
p264
aVrdif
p265
aVpolyethylene
p266
aVbiodiesel blending
p267
aVbioresin
p268
aVbioethanol
p269
aVbiofuels for transport
p270
aVmixed alcohol fuels
p271
aVgasoline
p272
aVrenewable fuel
p273
aVpdo
p274
aVrenewable jet
p275
aVpellets
p276
aVbiomass-based diesel
p277
aVmtg catalysis
p278
aVpolylutylene succinate
p279
aVpotatoes
p280
aVrenewable diesel from animal fats
p281
a.